target datalayout = "e-m:e-p270:32:32-p271:32:32-p272:64:64-i64:64-i128:128-f80:128-n8:16:32:64-S128"
target triple = "x86_64-pc-linux-gnu"

%struct.IDAMemRec = type { ptr, double, ptr, ptr, i32, double, double, ptr, i32, i32, ptr, ptr, i32, i32, i32, ptr, ptr, i32, i32, double, double, ptr, i32, i32, i32, i32, ptr, ptr, i32, ptr, ptr, ptr, i32, double, i32, i32, double, ptr, ptr, ptr, i32, ptr, ptr, i32, i32, i32, double, ptr, ptr, ptr, [6 x ptr], [6 x double], [6 x double], [6 x double], [6 x double], [6 x double], ptr, ptr, ptr, ptr, ptr, ptr, ptr, ptr, ptr, ptr, ptr, ptr, ptr, ptr, ptr, ptr, ptr, [6 x ptr], ptr, ptr, ptr, ptr, [6 x ptr], ptr, ptr, ptr, ptr, ptr, ptr, ptr, ptr, ptr, ptr, ptr, ptr, ptr, ptr, ptr, ptr, [6 x ptr], ptr, ptr, ptr, ptr, ptr, double, ptr, ptr, i32, i32, i32, i32, i32, i32, i32, i32, double, double, double, i32, double, i32, i32, i32, i32, i32, double, double, double, double, double, double, double, double, double, double, double, double, double, double, double, double, double, i32, i32, i32, i32, i64, double, double, double, double, double, double, double, double, double, i64, i64, i64, i64, i64, i64, i64, i64, i64, i64, i64, i64, i64, i64, i64, i64, i64, i64, i64, i64, i64, i64, i64, i64, i64, i64, double, i32, i32, i32, i32, i32, i32, i32, i32, i32, i32, i32, i32, i32, ptr, i32, ptr, i32, ptr, i32, ptr, ptr, ptr, ptr, ptr, ptr, i32, i32, ptr, ptr, ptr, ptr, ptr, ptr, ptr, double, i32, i32, ptr, i32, ptr, ptr, double, double, double, ptr, ptr, ptr, double, double, i32, i32, i64, ptr, i32, ptr, [5 x double], ptr, ptr, i32, ptr, i32 }

@.str = private unnamed_addr constant [114 x i8] c"generated/home/dtcxzyw/WorkSpace/Projects/compilers/llvm-opt-benchmark/bench/sundials/sundials/src/idas/idas_io.c\00", align 1
@.str.1 = private unnamed_addr constant [24 x i8] c"ida_mem = NULL illegal.\00", align 1
@.str.21 = private unnamed_addr constant [52 x i8] c"Illegal attempt to call before calling IDASensInit.\00", align 1
@.str.24 = private unnamed_addr constant [55 x i8] c"IDAGetConsistentIC can only be called before IDASolve.\00", align 1
@__func__.IDAGetSensConsistentIC = private unnamed_addr constant [23 x i8] c"IDAGetSensConsistentIC\00", align 1

; Function Attrs: nounwind uwtable
define i32 @IDAGetSensConsistentIC(ptr noundef %0, ptr noundef %1, ptr noundef %2) #0 {
  %4 = alloca i32, align 4
  %5 = alloca ptr, align 8
  %6 = alloca ptr, align 8
  %7 = alloca ptr, align 8
  %8 = alloca ptr, align 8
  %9 = alloca i32, align 4
  store ptr %0, ptr %5, align 8
  store ptr %1, ptr %6, align 8
  store ptr %2, ptr %7, align 8
  %10 = load ptr, ptr %5, align 8
  %11 = icmp eq ptr %10, null
  br i1 %11, label %12, label %13

12:                                               ; preds = %3
  call void (ptr, i32, i32, ptr, ptr, ptr, ...) @IDAProcessError(ptr noundef null, i32 noundef -20, i32 noundef 1908, ptr noundef @__func__.IDAGetSensConsistentIC, ptr noundef @.str, ptr noundef @.str.1)
  store i32 -20, ptr %4, align 4
  br label %85

13:                                               ; preds = %3
  %14 = load ptr, ptr %5, align 8
  store ptr %14, ptr %8, align 8
  %15 = load ptr, ptr %8, align 8
  %16 = getelementptr inbounds %struct.IDAMemRec, ptr %15, i32 0, i32 23
  %17 = load i32, ptr %16, align 4
  %18 = icmp eq i32 %17, 0
  br i1 %18, label %19, label %21

19:                                               ; preds = %13
  %20 = load ptr, ptr %8, align 8
  call void (ptr, i32, i32, ptr, ptr, ptr, ...) @IDAProcessError(ptr noundef %20, i32 noundef -40, i32 noundef 1916, ptr noundef @__func__.IDAGetSensConsistentIC, ptr noundef @.str, ptr noundef @.str.21)
  store i32 -40, ptr %4, align 4
  br label %85

21:                                               ; preds = %13
  %22 = load ptr, ptr %8, align 8
  %23 = getelementptr inbounds %struct.IDAMemRec, ptr %22, i32 0, i32 118
  %24 = load i32, ptr %23, align 4
  %25 = icmp ne i32 %24, 0
  br i1 %25, label %26, label %28

26:                                               ; preds = %21
  %27 = load ptr, ptr %8, align 8
  call void (ptr, i32, i32, ptr, ptr, ptr, ...) @IDAProcessError(ptr noundef %27, i32 noundef -22, i32 noundef 1923, ptr noundef @__func__.IDAGetSensConsistentIC, ptr noundef @.str, ptr noundef @.str.24)
  store i32 -22, ptr %4, align 4
  br label %85

28:                                               ; preds = %21
  %29 = load ptr, ptr %6, align 8
  %30 = icmp ne ptr %29, null
  br i1 %30, label %31, label %56

31:                                               ; preds = %28
  store i32 0, ptr %9, align 4
  br label %32

32:                                               ; preds = %52, %31
  %33 = load i32, ptr %9, align 4
  %34 = load ptr, ptr %8, align 8
  %35 = getelementptr inbounds %struct.IDAMemRec, ptr %34, i32 0, i32 24
  %36 = load i32, ptr %35, align 8
  %37 = icmp slt i32 %33, %36
  br i1 %37, label %38, label %55

38:                                               ; preds = %32
  %39 = load ptr, ptr %8, align 8
  %40 = getelementptr inbounds %struct.IDAMemRec, ptr %39, i32 0, i32 78
  %41 = getelementptr inbounds [6 x ptr], ptr %40, i64 0, i64 0
  %42 = load ptr, ptr %41, align 8
  %43 = load i32, ptr %9, align 4
  %44 = sext i32 %43 to i64
  %45 = getelementptr inbounds ptr, ptr %42, i64 %44
  %46 = load ptr, ptr %45, align 8
  %47 = load ptr, ptr %6, align 8
  %48 = load i32, ptr %9, align 4
  %49 = sext i32 %48 to i64
  %50 = getelementptr inbounds ptr, ptr %47, i64 %49
  %51 = load ptr, ptr %50, align 8
  call void @N_VScale(double noundef 1.000000e+00, ptr noundef %46, ptr noundef %51)
  br label %52

52:                                               ; preds = %38
  %53 = load i32, ptr %9, align 4
  %54 = add nsw i32 %53, 1
  store i32 %54, ptr %9, align 4
  br label %32

55:                                               ; preds = %32
  br label %56

56:                                               ; preds = %55, %28
  %57 = load ptr, ptr %7, align 8
  %58 = icmp ne ptr %57, null
  br i1 %58, label %59, label %84

59:                                               ; preds = %56
  store i32 0, ptr %9, align 4
  br label %60

60:                                               ; preds = %80, %59
  %61 = load i32, ptr %9, align 4
  %62 = load ptr, ptr %8, align 8
  %63 = getelementptr inbounds %struct.IDAMemRec, ptr %62, i32 0, i32 24
  %64 = load i32, ptr %63, align 8
  %65 = icmp slt i32 %61, %64
  br i1 %65, label %66, label %83

66:                                               ; preds = %60
  %67 = load ptr, ptr %8, align 8
  %68 = getelementptr inbounds %struct.IDAMemRec, ptr %67, i32 0, i32 78
  %69 = getelementptr inbounds [6 x ptr], ptr %68, i64 0, i64 1
  %70 = load ptr, ptr %69, align 8
  %71 = load i32, ptr %9, align 4
  %72 = sext i32 %71 to i64
  %73 = getelementptr inbounds ptr, ptr %70, i64 %72
  %74 = load ptr, ptr %73, align 8
  %75 = load ptr, ptr %7, align 8
  %76 = load i32, ptr %9, align 4
  %77 = sext i32 %76 to i64
  %78 = getelementptr inbounds ptr, ptr %75, i64 %77
  %79 = load ptr, ptr %78, align 8
  call void @N_VScale(double noundef 1.000000e+00, ptr noundef %74, ptr noundef %79)
  br label %80

80:                                               ; preds = %66
  %81 = load i32, ptr %9, align 4
  %82 = add nsw i32 %81, 1
  store i32 %82, ptr %9, align 4
  br label %60

83:                                               ; preds = %60
  br label %84

84:                                               ; preds = %83, %56
  store i32 0, ptr %4, align 4
  br label %85

85:                                               ; preds = %84, %26, %19, %12
  %86 = load i32, ptr %4, align 4
  ret i32 %86
}