; Function Attrs: nounwind uwtable
define range(i32 -40, 1) i32 @IDAGetSensConsistentIC(ptr noundef %0, ptr noundef readonly %1, ptr noundef readonly %2) local_unnamed_addr #0 {
  %4 = icmp eq ptr %0, null
  br i1 %4, label %5, label %6

5:                                                ; preds = %3
  tail call void (ptr, i32, i32, ptr, ptr, ptr, ...) @IDAProcessError(ptr noundef null, i32 noundef -20, i32 noundef 1908, ptr noundef nonnull @__func__.IDAGetSensConsistentIC, ptr noundef nonnull @.str, ptr noundef nonnull @.str.1) #9
  br label %.loopexit

6:                                                ; preds = %3
  %7 = getelementptr inbounds nuw i8, ptr %0, i64 156
  %8 = load i32, ptr %7, align 4
  %9 = icmp eq i32 %8, 0
  br i1 %9, label %10, label %11

10:                                               ; preds = %6
  tail call void (ptr, i32, i32, ptr, ptr, ptr, ...) @IDAProcessError(ptr noundef nonnull %0, i32 noundef -40, i32 noundef 1916, ptr noundef nonnull @__func__.IDAGetSensConsistentIC, ptr noundef nonnull @.str, ptr noundef nonnull @.str.21) #9
  br label %.loopexit

11:                                               ; preds = %6
  %12 = getelementptr inbounds nuw i8, ptr %0, i64 1212
  %13 = load i32, ptr %12, align 4
  %.not = icmp eq i32 %13, 0
  br i1 %.not, label %15, label %14

14:                                               ; preds = %11
  tail call void (ptr, i32, i32, ptr, ptr, ptr, ...) @IDAProcessError(ptr noundef nonnull %0, i32 noundef -22, i32 noundef 1923, ptr noundef nonnull @__func__.IDAGetSensConsistentIC, ptr noundef nonnull @.str, ptr noundef nonnull @.str.24) #9
  br label %.loopexit

15:                                               ; preds = %11
  %.not26 = icmp eq ptr %1, null
  br i1 %.not26, label %.loopexit29, label %.preheader28

.preheader28:                                     ; preds = %15
  %16 = getelementptr inbounds nuw i8, ptr %0, i64 160
  %17 = load i32, ptr %16, align 8
  %18 = icmp sgt i32 %17, 0
  br i1 %18, label %.lr.ph, label %.loopexit29

.lr.ph:                                           ; preds = %.preheader28
  %19 = getelementptr inbounds nuw i8, ptr %0, i64 848
  br label %20

20:                                               ; preds = %.lr.ph, %20
  %indvars.iv = phi i64 [ 0, %.lr.ph ], [ %indvars.iv.next, %20 ]
  %21 = load ptr, ptr %19, align 8
  %22 = getelementptr inbounds nuw ptr, ptr %21, i64 %indvars.iv
  %23 = load ptr, ptr %22, align 8
  %24 = getelementptr inbounds nuw ptr, ptr %1, i64 %indvars.iv
  %25 = load ptr, ptr %24, align 8
  tail call void @N_VScale(double noundef 1.000000e+00, ptr noundef %23, ptr noundef %25) #9
  %indvars.iv.next = add nuw nsw i64 %indvars.iv, 1
  %26 = load i32, ptr %16, align 8
  %27 = sext i32 %26 to i64
  %28 = icmp slt i64 %indvars.iv.next, %27
  br i1 %28, label %20, label %.loopexit29

.loopexit29:                                      ; preds = %20, %.preheader28, %15
  %.not27 = icmp eq ptr %2, null
  br i1 %.not27, label %.loopexit, label %.preheader

.preheader:                                       ; preds = %.loopexit29
  %29 = getelementptr inbounds nuw i8, ptr %0, i64 160
  %30 = load i32, ptr %29, align 8
  %31 = icmp sgt i32 %30, 0
  br i1 %31, label %.lr.ph32, label %.loopexit

.lr.ph32:                                         ; preds = %.preheader
  %32 = getelementptr inbounds nuw i8, ptr %0, i64 856
  br label %33

33:                                               ; preds = %.lr.ph32, %33
  %indvars.iv34 = phi i64 [ 0, %.lr.ph32 ], [ %indvars.iv.next35, %33 ]
  %34 = load ptr, ptr %32, align 8
  %35 = getelementptr inbounds nuw ptr, ptr %34, i64 %indvars.iv34
  %36 = load ptr, ptr %35, align 8
  %37 = getelementptr inbounds nuw ptr, ptr %2, i64 %indvars.iv34
  %38 = load ptr, ptr %37, align 8
  tail call void @N_VScale(double noundef 1.000000e+00, ptr noundef %36, ptr noundef %38) #9
  %indvars.iv.next35 = add nuw nsw i64 %indvars.iv34, 1
  %39 = load i32, ptr %29, align 8
  %40 = sext i32 %39 to i64
  %41 = icmp slt i64 %indvars.iv.next35, %40
  br i1 %41, label %33, label %.loopexit

.loopexit:                                        ; preds = %33, %.preheader, %.loopexit29, %14, %10, %5
  %.022 = phi i32 [ -20, %5 ], [ -40, %10 ], [ -22, %14 ], [ 0, %.loopexit29 ], [ 0, %.preheader ], [ 0, %33 ]
  ret i32 %.022
}